; Function Attrs: nofree norecurse nosync nounwind memory(read, argmem: readwrite, inaccessiblemem: none) uwtable
define internal void @SimpleVFilter16i_C(ptr noundef captures(none) %0, i32 noundef %1, i32 noundef %2) #5 {
  %4 = shl nsw i32 %1, 2
  %5 = sext i32 %4 to i64
  %6 = shl nsw i32 %2, 1
  %7 = or disjoint i32 %6, 1
  %8 = mul nsw i32 %1, -2
  %9 = sext i32 %8 to i64
  %10 = sub nsw i32 0, %1
  %11 = sext i32 %10 to i64
  %12 = sext i32 %1 to i64
  %13 = load ptr, ptr @VP8kabs0, align 8, !tbaa !18
  %14 = load ptr, ptr @VP8ksclip1, align 8
  %15 = load ptr, ptr @VP8ksclip2, align 8
  %16 = load ptr, ptr @VP8kclip1, align 8
  br label %17

17:                                               ; preds = %3, %SimpleVFilter16_C.exit
  %.08 = phi i32 [ 3, %3 ], [ %72, %SimpleVFilter16_C.exit ]
  %.067 = phi ptr [ %0, %3 ], [ %18, %SimpleVFilter16_C.exit ]
  %18 = getelementptr inbounds i8, ptr %.067, i64 %5
  br label %19

19:                                               ; preds = %71, %17
  %indvars.iv.i = phi i64 [ 0, %17 ], [ %indvars.iv.next.i, %71 ]
  %20 = getelementptr inbounds nuw i8, ptr %18, i64 %indvars.iv.i
  %21 = getelementptr inbounds i8, ptr %20, i64 %9
  %22 = load i8, ptr %21, align 1, !tbaa !14
  %23 = zext i8 %22 to i64
  %24 = getelementptr inbounds i8, ptr %20, i64 %11
  %25 = load i8, ptr %24, align 1, !tbaa !14
  %26 = zext i8 %25 to i64
  %27 = load i8, ptr %20, align 1, !tbaa !14
  %28 = zext i8 %27 to i64
  %29 = getelementptr inbounds i8, ptr %20, i64 %12
  %30 = load i8, ptr %29, align 1, !tbaa !14
  %31 = zext i8 %30 to i64
  %32 = sub nsw i64 %26, %28
  %33 = getelementptr inbounds i8, ptr %13, i64 %32
  %34 = load i8, ptr %33, align 1, !tbaa !14
  %35 = zext i8 %34 to i32
  %36 = shl nuw nsw i32 %35, 2
  %37 = sub nsw i64 %23, %31
  %38 = getelementptr inbounds i8, ptr %13, i64 %37
  %39 = load i8, ptr %38, align 1, !tbaa !14
  %40 = zext i8 %39 to i32
  %41 = add nuw nsw i32 %36, %40
  %.not9.i = icmp sgt i32 %41, %7
  br i1 %.not9.i, label %71, label %42

42:                                               ; preds = %19
  %43 = zext i8 %25 to i32
  %44 = zext i8 %27 to i32
  %45 = sub nsw i32 %44, %43
  %46 = mul nsw i32 %45, 3
  %47 = getelementptr inbounds i8, ptr %14, i64 %37
  %48 = load i8, ptr %47, align 1, !tbaa !14
  %49 = sext i8 %48 to i32
  %50 = add nsw i32 %46, %49
  %51 = add nsw i32 %50, 4
  %52 = ashr i32 %51, 3
  %53 = sext i32 %52 to i64
  %54 = getelementptr inbounds i8, ptr %15, i64 %53
  %55 = load i8, ptr %54, align 1, !tbaa !14
  %56 = sext i8 %55 to i32
  %57 = add nsw i32 %50, 3
  %58 = ashr i32 %57, 3
  %59 = sext i32 %58 to i64
  %60 = getelementptr inbounds i8, ptr %15, i64 %59
  %61 = load i8, ptr %60, align 1, !tbaa !14
  %62 = sext i8 %61 to i32
  %63 = add nsw i32 %62, %43
  %64 = sext i32 %63 to i64
  %65 = getelementptr inbounds i8, ptr %16, i64 %64
  %66 = load i8, ptr %65, align 1, !tbaa !14
  store i8 %66, ptr %24, align 1, !tbaa !14
  %67 = sub nsw i32 %44, %56
  %68 = sext i32 %67 to i64
  %69 = getelementptr inbounds i8, ptr %16, i64 %68
  %70 = load i8, ptr %69, align 1, !tbaa !14
  store i8 %70, ptr %20, align 1, !tbaa !14
  br label %71

71:                                               ; preds = %42, %19
  %indvars.iv.next.i = add nuw nsw i64 %indvars.iv.i, 1
  %exitcond.not.i = icmp eq i64 %indvars.iv.next.i, 16
  br i1 %exitcond.not.i, label %SimpleVFilter16_C.exit, label %19, !llvm.loop !20

SimpleVFilter16_C.exit:                           ; preds = %71
  %72 = add nsw i32 %.08, -1
  %73 = icmp ugt i32 %.08, 1
  br i1 %73, label %17, label %74, !llvm.loop !22

74:                                               ; preds = %SimpleVFilter16_C.exit
  ret void
}